target datalayout = "e-m:e-p270:32:32-p271:32:32-p272:64:64-i64:64-i128:128-f80:128-n8:16:32:64-S128"
target triple = "x86_64-pc-linux-gnu"

%"class.icu_77::UObject" = type { ptr }
%"class.icu_77::Calendar" = type <{ %"class.icu_77::UObject", [24 x i32], [24 x i8], i8, [7 x i8], double, ptr, i8, i16, i8, i32, i32, i32, i8, i8, i16, [4 x i8], ptr, ptr }>

; Function Attrs: inlinehint mustprogress nounwind uwtable
define internal noundef signext i8 @_ZL9U_FAILURE10UErrorCode(i32 noundef %0) #2 {
  %2 = alloca i32, align 4
  store i32 %0, ptr %2, align 4, !tbaa !15
  %3 = load i32, ptr %2, align 4, !tbaa !15
  %4 = icmp sgt i32 %3, 0
  %5 = zext i1 %4 to i8
  ret i8 %5
}

; Function Attrs: mustprogress uwtable
define noundef i32 @_ZNK6icu_778Calendar16getDayOfWeekTypeE19UCalendarDaysOfWeekR10UErrorCode(ptr noundef nonnull align 8 dereferenceable(192) %0, i32 noundef %1, ptr noundef nonnull align 4 dereferenceable(4) %2) unnamed_addr #1 align 2 {
  %4 = alloca i32, align 4
  %5 = alloca ptr, align 8
  %6 = alloca i32, align 4
  %7 = alloca ptr, align 8
  store ptr %0, ptr %5, align 8, !tbaa !37
  store i32 %1, ptr %6, align 4, !tbaa !92
  store ptr %2, ptr %7, align 8, !tbaa !22
  %8 = load ptr, ptr %5, align 8
  %9 = load ptr, ptr %7, align 8, !tbaa !22
  %10 = load i32, ptr %9, align 4, !tbaa !15
  %11 = call noundef signext i8 @_ZL9U_FAILURE10UErrorCode(i32 noundef %10)
  %12 = icmp ne i8 %11, 0
  br i1 %12, label %13, label %14

13:                                               ; preds = %3
  store i32 0, ptr %4, align 4
  br label %123

14:                                               ; preds = %3
  %15 = load i32, ptr %6, align 4, !tbaa !92
  %16 = icmp slt i32 %15, 1
  br i1 %16, label %20, label %17

17:                                               ; preds = %14
  %18 = load i32, ptr %6, align 4, !tbaa !92
  %19 = icmp sgt i32 %18, 7
  br i1 %19, label %20, label %22

20:                                               ; preds = %17, %14
  %21 = load ptr, ptr %7, align 8, !tbaa !22
  store i32 1, ptr %21, align 4, !tbaa !15
  store i32 0, ptr %4, align 4
  br label %123

22:                                               ; preds = %17
  %23 = getelementptr inbounds nuw %"class.icu_77::Calendar", ptr %8, i32 0, i32 8
  %24 = load i16, ptr %23, align 1
  %25 = lshr i16 %24, 7
  %26 = and i16 %25, 15
  %27 = zext i16 %26 to i32
  %28 = getelementptr inbounds nuw %"class.icu_77::Calendar", ptr %8, i32 0, i32 8
  %29 = load i16, ptr %28, align 1
  %30 = lshr i16 %29, 11
  %31 = and i16 %30, 15
  %32 = zext i16 %31 to i32
  %33 = icmp eq i32 %27, %32
  br i1 %33, label %34, label %48

34:                                               ; preds = %22
  %35 = load i32, ptr %6, align 4, !tbaa !92
  %36 = getelementptr inbounds nuw %"class.icu_77::Calendar", ptr %8, i32 0, i32 8
  %37 = load i16, ptr %36, align 1
  %38 = lshr i16 %37, 7
  %39 = and i16 %38, 15
  %40 = zext i16 %39 to i32
  %41 = icmp ne i32 %35, %40
  br i1 %41, label %42, label %43

42:                                               ; preds = %34
  store i32 0, ptr %4, align 4
  br label %123

43:                                               ; preds = %34
  %44 = getelementptr inbounds nuw %"class.icu_77::Calendar", ptr %8, i32 0, i32 10
  %45 = load i32, ptr %44, align 4, !tbaa !68
  %46 = icmp eq i32 %45, 0
  %47 = select i1 %46, i32 1, i32 2
  store i32 %47, ptr %4, align 4
  br label %123

48:                                               ; preds = %22
  %49 = getelementptr inbounds nuw %"class.icu_77::Calendar", ptr %8, i32 0, i32 8
  %50 = load i16, ptr %49, align 1
  %51 = lshr i16 %50, 7
  %52 = and i16 %51, 15
  %53 = zext i16 %52 to i32
  %54 = getelementptr inbounds nuw %"class.icu_77::Calendar", ptr %8, i32 0, i32 8
  %55 = load i16, ptr %54, align 1
  %56 = lshr i16 %55, 11
  %57 = and i16 %56, 15
  %58 = zext i16 %57 to i32
  %59 = icmp slt i32 %53, %58
  br i1 %59, label %60, label %78

60:                                               ; preds = %48
  %61 = load i32, ptr %6, align 4, !tbaa !92
  %62 = getelementptr inbounds nuw %"class.icu_77::Calendar", ptr %8, i32 0, i32 8
  %63 = load i16, ptr %62, align 1
  %64 = lshr i16 %63, 7
  %65 = and i16 %64, 15
  %66 = zext i16 %65 to i32
  %67 = icmp slt i32 %61, %66
  br i1 %67, label %76, label %68

68:                                               ; preds = %60
  %69 = load i32, ptr %6, align 4, !tbaa !92
  %70 = getelementptr inbounds nuw %"class.icu_77::Calendar", ptr %8, i32 0, i32 8
  %71 = load i16, ptr %70, align 1
  %72 = lshr i16 %71, 11
  %73 = and i16 %72, 15
  %74 = zext i16 %73 to i32
  %75 = icmp sgt i32 %69, %74
  br i1 %75, label %76, label %77

76:                                               ; preds = %68, %60
  store i32 0, ptr %4, align 4
  br label %123

77:                                               ; preds = %68
  br label %96

78:                                               ; preds = %48
  %79 = load i32, ptr %6, align 4, !tbaa !92
  %80 = getelementptr inbounds nuw %"class.icu_77::Calendar", ptr %8, i32 0, i32 8
  %81 = load i16, ptr %80, align 1
  %82 = lshr i16 %81, 11
  %83 = and i16 %82, 15
  %84 = zext i16 %83 to i32
  %85 = icmp sgt i32 %79, %84
  br i1 %85, label %86, label %95

86:                                               ; preds = %78
  %87 = load i32, ptr %6, align 4, !tbaa !92
  %88 = getelementptr inbounds nuw %"class.icu_77::Calendar", ptr %8, i32 0, i32 8
  %89 = load i16, ptr %88, align 1
  %90 = lshr i16 %89, 7
  %91 = and i16 %90, 15
  %92 = zext i16 %91 to i32
  %93 = icmp slt i32 %87, %92
  br i1 %93, label %94, label %95

94:                                               ; preds = %86
  store i32 0, ptr %4, align 4
  br label %123

95:                                               ; preds = %86, %78
  br label %96

96:                                               ; preds = %95, %77
  %97 = load i32, ptr %6, align 4, !tbaa !92
  %98 = getelementptr inbounds nuw %"class.icu_77::Calendar", ptr %8, i32 0, i32 8
  %99 = load i16, ptr %98, align 1
  %100 = lshr i16 %99, 7
  %101 = and i16 %100, 15
  %102 = zext i16 %101 to i32
  %103 = icmp eq i32 %97, %102
  br i1 %103, label %104, label %109

104:                                              ; preds = %96
  %105 = getelementptr inbounds nuw %"class.icu_77::Calendar", ptr %8, i32 0, i32 10
  %106 = load i32, ptr %105, align 4, !tbaa !68
  %107 = icmp eq i32 %106, 0
  %108 = select i1 %107, i32 1, i32 2
  store i32 %108, ptr %4, align 4
  br label %123

109:                                              ; preds = %96
  %110 = load i32, ptr %6, align 4, !tbaa !92
  %111 = getelementptr inbounds nuw %"class.icu_77::Calendar", ptr %8, i32 0, i32 8
  %112 = load i16, ptr %111, align 1
  %113 = lshr i16 %112, 11
  %114 = and i16 %113, 15
  %115 = zext i16 %114 to i32
  %116 = icmp eq i32 %110, %115
  br i1 %116, label %117, label %122

117:                                              ; preds = %109
  %118 = getelementptr inbounds nuw %"class.icu_77::Calendar", ptr %8, i32 0, i32 11
  %119 = load i32, ptr %118, align 8, !tbaa !69
  %120 = icmp sge i32 %119, 86400000
  %121 = select i1 %120, i32 1, i32 3
  store i32 %121, ptr %4, align 4
  br label %123

122:                                              ; preds = %109
  store i32 1, ptr %4, align 4
  br label %123

123:                                              ; preds = %122, %117, %104, %94, %76, %43, %42, %20, %13
  %124 = load i32, ptr %4, align 4
  ret i32 %124
}