; Function Attrs: mustprogress nofree norecurse nosync nounwind willreturn memory(argmem: readwrite) uwtable
define noundef range(i32 0, 4) i32 @_ZNK6icu_778Calendar16getDayOfWeekTypeE19UCalendarDaysOfWeekR10UErrorCode(ptr noundef nonnull readonly align 8 captures(none) dereferenceable(192) %0, i32 noundef %1, ptr noundef nonnull align 4 captures(none) dereferenceable(4) %2) unnamed_addr #12 align 2 {
  %4 = load i32, ptr %2, align 4, !tbaa !13
  %5 = icmp slt i32 %4, 1
  br i1 %5, label %6, label %47

6:                                                ; preds = %3
  %7 = add i32 %1, -8
  %or.cond = icmp ult i32 %7, -7
  br i1 %or.cond, label %8, label %9

8:                                                ; preds = %6
  store i32 1, ptr %2, align 4, !tbaa !13
  br label %47

9:                                                ; preds = %6
  %10 = getelementptr inbounds nuw i8, ptr %0, i64 153
  %11 = load i16, ptr %10, align 1
  %12 = lshr i16 %11, 7
  %13 = and i16 %12, 15
  %14 = zext nneg i16 %13 to i32
  %15 = lshr i16 %11, 11
  %16 = and i16 %15, 15
  %17 = zext nneg i16 %16 to i32
  %18 = icmp eq i16 %13, %16
  br i1 %18, label %19, label %25

19:                                               ; preds = %9
  %.not16 = icmp eq i32 %1, %14
  br i1 %.not16, label %20, label %47

20:                                               ; preds = %19
  %21 = getelementptr inbounds nuw i8, ptr %0, i64 156
  %22 = load i32, ptr %21, align 4, !tbaa !42
  %23 = icmp eq i32 %22, 0
  %24 = select i1 %23, i32 1, i32 2
  br label %47

25:                                               ; preds = %9
  %26 = icmp samesign ult i16 %13, %16
  br i1 %26, label %27, label %30

27:                                               ; preds = %25
  %28 = icmp samesign ult i32 %1, %14
  %29 = icmp samesign ugt i32 %1, %17
  %or.cond17 = select i1 %28, i1 true, i1 %29
  br i1 %or.cond17, label %47, label %33

30:                                               ; preds = %25
  %31 = icmp samesign ugt i32 %1, %17
  %32 = icmp samesign ult i32 %1, %14
  %or.cond18 = select i1 %31, i1 %32, i1 false
  br i1 %or.cond18, label %47, label %33

33:                                               ; preds = %27, %30
  %34 = icmp eq i32 %1, %14
  br i1 %34, label %35, label %40

35:                                               ; preds = %33
  %36 = getelementptr inbounds nuw i8, ptr %0, i64 156
  %37 = load i32, ptr %36, align 4, !tbaa !42
  %38 = icmp eq i32 %37, 0
  %39 = select i1 %38, i32 1, i32 2
  br label %47

40:                                               ; preds = %33
  %41 = icmp eq i32 %1, %17
  br i1 %41, label %42, label %47

42:                                               ; preds = %40
  %43 = getelementptr inbounds nuw i8, ptr %0, i64 160
  %44 = load i32, ptr %43, align 8, !tbaa !43
  %45 = icmp sgt i32 %44, 86399999
  %46 = select i1 %45, i32 1, i32 3
  br label %47

47:                                               ; preds = %40, %30, %27, %19, %3, %42, %35, %20, %8
  %.0 = phi i32 [ 0, %8 ], [ %24, %20 ], [ %39, %35 ], [ %46, %42 ], [ 0, %3 ], [ 0, %19 ], [ 0, %27 ], [ 0, %30 ], [ 1, %40 ]
  ret i32 %.0
}